; Function Attrs: mustprogress nofree norecurse nosync nounwind willreturn memory(argmem: write) uwtable
define noundef range(i64 -70, 4) i64 @_ZN11duckdb_zstd24ZSTD_writeLastEmptyBlockEPvm(ptr noundef writeonly captures(none) %0, i64 noundef %1) local_unnamed_addr #8 {
  %3 = icmp ult i64 %1, 3
  br i1 %3, label %6, label %4

4:                                                ; preds = %2
  store i16 1, ptr %0, align 1, !tbaa !247
  %5 = getelementptr inbounds nuw i8, ptr %0, i64 2
  store i8 0, ptr %5, align 1, !tbaa !211
  br label %6

6:                                                ; preds = %2, %4
  %.0 = phi i64 [ 3, %4 ], [ -70, %2 ]
  ret i64 %.0
}